; Function Attrs: null_pointer_is_valid sspstrong uwtable
define hidden i32 @recent_get_column_width(i32 noundef %0) local_unnamed_addr #0 {
  %2 = load ptr, ptr getelementptr inbounds nuw (i8, ptr @recent, i64 136), align 8
  %3 = tail call ptr @g_list_nth_data(ptr noundef %2, i32 noundef %0)
  %.not = icmp eq ptr %3, null
  br i1 %.not, label %6, label %4

4:                                                ; preds = %1
  %5 = load i32, ptr %3, align 4
  br label %.loopexit

6:                                                ; preds = %1
  %7 = load ptr, ptr getelementptr inbounds nuw (i8, ptr @recent, i64 136), align 8
  %8 = tail call i32 @g_list_length(ptr noundef %7)
  %9 = load ptr, ptr @prefs, align 8
  %10 = tail call i32 @g_list_length(ptr noundef %9)
  %11 = icmp ult i32 %8, %10
  br i1 %11, label %.lr.ph, label %.loopexit

.lr.ph:                                           ; preds = %6, %.lr.ph
  %.08 = phi i32 [ %16, %.lr.ph ], [ %8, %6 ]
  %12 = tail call noalias dereferenceable_or_null(8) ptr @g_malloc(i64 noundef 8) #12
  store i32 -1, ptr %12, align 4
  %13 = getelementptr inbounds nuw i8, ptr %12, i64 4
  store i8 0, ptr %13, align 4
  %14 = load ptr, ptr getelementptr inbounds nuw (i8, ptr @recent, i64 136), align 8
  %15 = tail call ptr @g_list_insert(ptr noundef %14, ptr noundef %12, i32 noundef %.08)
  store ptr %15, ptr getelementptr inbounds nuw (i8, ptr @recent, i64 136), align 8
  %16 = add nuw i32 %.08, 1
  %17 = load ptr, ptr @prefs, align 8
  %18 = tail call i32 @g_list_length(ptr noundef %17)
  %19 = icmp ult i32 %16, %18
  br i1 %19, label %.lr.ph, label %.loopexit, !llvm.loop !17

.loopexit:                                        ; preds = %.lr.ph, %6, %4
  %.06 = phi i32 [ %5, %4 ], [ -1, %6 ], [ -1, %.lr.ph ]
  ret i32 %.06
}